; Function Attrs: mustprogress nounwind uwtable
define internal fastcc void @_ZNSt6vectorIN12_GLOBAL__N_112NestingStateESaIS1_EE8pop_backEv(ptr nocapture noundef nonnull align 8 dereferenceable(24) %0) unnamed_addr #4 align 2 {
  %2 = getelementptr inbounds i8, ptr %0, i64 8
  %3 = load ptr, ptr %2, align 8
  %4 = getelementptr inbounds i8, ptr %3, i64 -120
  store ptr %4, ptr %2, align 8
  %5 = getelementptr inbounds i8, ptr %3, i64 -8
  %6 = load i8, ptr %5, align 8
  %7 = and i8 %6, 1
  %.not.i.i.i.i.i.i.i.i = icmp eq i8 %7, 0
  br i1 %.not.i.i.i.i.i.i.i.i, label %_ZNSt16allocator_traitsISaIN12_GLOBAL__N_112NestingStateEEE7destroyIS1_EEvRS2_PT_.exit, label %8

8:                                                ; preds = %1
  %9 = getelementptr inbounds i8, ptr %3, i64 -40
  store i8 0, ptr %5, align 8
  tail call void @_ZNSt7__cxx1112basic_stringIcSt11char_traitsIcESaIcEED1Ev(ptr noundef nonnull align 8 dereferenceable(32) %9) #17
  br label %_ZNSt16allocator_traitsISaIN12_GLOBAL__N_112NestingStateEEE7destroyIS1_EEvRS2_PT_.exit

_ZNSt16allocator_traitsISaIN12_GLOBAL__N_112NestingStateEEE7destroyIS1_EEvRS2_PT_.exit: ; preds = %1, %8
  %10 = getelementptr inbounds i8, ptr %3, i64 -112
  %11 = getelementptr inbounds i8, ptr %3, i64 -80
  tail call void @_ZNSt7__cxx1112basic_stringIcSt11char_traitsIcESaIcEED1Ev(ptr noundef nonnull align 8 dereferenceable(32) %11) #17
  tail call void @_ZNSt7__cxx1112basic_stringIcSt11char_traitsIcESaIcEED1Ev(ptr noundef nonnull align 8 dereferenceable(32) %10) #17
  ret void
}